target datalayout = "e-m:e-p270:32:32-p271:32:32-p272:64:64-i64:64-i128:128-f80:128-n8:16:32:64-S128"
target triple = "x86_64-pc-linux-gnu"

%"class.std::__cxx11::basic_string" = type { %"struct.std::__cxx11::basic_string<char>::_Alloc_hider", i64, %union.anon }
%"struct.std::__cxx11::basic_string<char>::_Alloc_hider" = type { ptr }
%union.anon = type { i64, [8 x i8] }
%"class.std::vector" = type { %"struct.std::_Vector_base" }
%"struct.std::_Vector_base" = type { %"struct.std::_Vector_base<long, std::allocator<long>>::_Vector_impl" }
%"struct.std::_Vector_base<long, std::allocator<long>>::_Vector_impl" = type { %"struct.std::_Vector_base<long, std::allocator<long>>::_Vector_impl_data" }
%"struct.std::_Vector_base<long, std::allocator<long>>::_Vector_impl_data" = type { ptr, ptr, ptr }
%"struct.std::_Rb_tree_iterator" = type { ptr }
%"class.open_spiel::algorithms::DeterministicTabularPolicy" = type <{ %"class.open_spiel::Policy", %"class.std::map.25", i32, [4 x i8] }>
%"class.open_spiel::Policy" = type { ptr }
%"class.std::map.25" = type { %"class.std::_Rb_tree.26" }
%"class.std::_Rb_tree.26" = type { %"struct.std::_Rb_tree<std::__cxx11::basic_string<char>, std::pair<const std::__cxx11::basic_string<char>, open_spiel::algorithms::LegalsWithIndex>, std::_Select1st<std::pair<const std::__cxx11::basic_string<char>, open_spiel::algorithms::LegalsWithIndex>>, std::less<std::__cxx11::basic_string<char>>>::_Rb_tree_impl" }
%"struct.std::_Rb_tree<std::__cxx11::basic_string<char>, std::pair<const std::__cxx11::basic_string<char>, open_spiel::algorithms::LegalsWithIndex>, std::_Select1st<std::pair<const std::__cxx11::basic_string<char>, open_spiel::algorithms::LegalsWithIndex>>, std::less<std::__cxx11::basic_string<char>>>::_Rb_tree_impl" = type { [8 x i8], %"struct.std::_Rb_tree_header" }
%"struct.std::_Rb_tree_header" = type { %"struct.std::_Rb_tree_node_base", i64 }
%"struct.std::_Rb_tree_node_base" = type { i32, ptr, ptr, ptr }
%"struct.std::pair.33" = type { %"class.std::__cxx11::basic_string", %"struct.open_spiel::algorithms::LegalsWithIndex" }
%"struct.open_spiel::algorithms::LegalsWithIndex" = type <{ %"class.std::vector", i32, [4 x i8] }>
%"struct.std::_Rb_tree_node" = type { %"struct.std::_Rb_tree_node_base", %"struct.__gnu_cxx::__aligned_membuf" }
%"struct.__gnu_cxx::__aligned_membuf" = type { [64 x i8] }

; Function Attrs: mustprogress nounwind uwtable
define linkonce_odr noundef ptr @_ZN9__gnu_cxx16__aligned_membufISt4pairIKNSt7__cxx1112basic_stringIcSt11char_traitsIcESaIcEEEN10open_spiel10algorithms15LegalsWithIndexEEE7_M_addrEv(ptr noundef nonnull align 8 dereferenceable(64) %0) #5 comdat align 2 {
  %2 = alloca ptr, align 8
  store ptr %0, ptr %2, align 8
  %3 = load ptr, ptr %2, align 8
  %4 = getelementptr inbounds nuw %"struct.__gnu_cxx::__aligned_membuf", ptr %3, i32 0, i32 0
  ret ptr %4
}

; Function Attrs: mustprogress nounwind uwtable
define linkonce_odr noundef ptr @_ZN9__gnu_cxx16__aligned_membufISt4pairIKNSt7__cxx1112basic_stringIcSt11char_traitsIcESaIcEEEN10open_spiel10algorithms15LegalsWithIndexEEE6_M_ptrEv(ptr noundef nonnull align 8 dereferenceable(64) %0) #5 comdat align 2 {
  %2 = alloca ptr, align 8
  store ptr %0, ptr %2, align 8
  %3 = load ptr, ptr %2, align 8
  %4 = call noundef ptr @_ZN9__gnu_cxx16__aligned_membufISt4pairIKNSt7__cxx1112basic_stringIcSt11char_traitsIcESaIcEEEN10open_spiel10algorithms15LegalsWithIndexEEE7_M_addrEv(ptr noundef nonnull align 8 dereferenceable(64) %3) #3
  ret ptr %4
}

; Function Attrs: mustprogress nounwind uwtable
define linkonce_odr void @_ZNSt17_Rb_tree_iteratorISt4pairIKNSt7__cxx1112basic_stringIcSt11char_traitsIcESaIcEEEN10open_spiel10algorithms15LegalsWithIndexEEEC2EPSt18_Rb_tree_node_base(ptr noundef nonnull align 8 dereferenceable(8) %0, ptr noundef %1) unnamed_addr #5 comdat align 2 {
  %3 = alloca ptr, align 8
  %4 = alloca ptr, align 8
  store ptr %0, ptr %3, align 8
  store ptr %1, ptr %4, align 8
  %5 = load ptr, ptr %3, align 8
  %6 = getelementptr inbounds nuw %"struct.std::_Rb_tree_iterator", ptr %5, i32 0, i32 0
  %7 = load ptr, ptr %4, align 8
  store ptr %7, ptr %6, align 8
  ret void
}

; Function Attrs: mustprogress nounwind uwtable
define linkonce_odr noundef ptr @_ZNSt13_Rb_tree_nodeISt4pairIKNSt7__cxx1112basic_stringIcSt11char_traitsIcESaIcEEEN10open_spiel10algorithms15LegalsWithIndexEEE9_M_valptrEv(ptr noundef nonnull align 8 dereferenceable(96) %0) #5 comdat align 2 {
  %2 = alloca ptr, align 8
  store ptr %0, ptr %2, align 8
  %3 = load ptr, ptr %2, align 8
  %4 = getelementptr inbounds nuw %"struct.std::_Rb_tree_node", ptr %3, i32 0, i32 1
  %5 = call noundef ptr @_ZN9__gnu_cxx16__aligned_membufISt4pairIKNSt7__cxx1112basic_stringIcSt11char_traitsIcESaIcEEEN10open_spiel10algorithms15LegalsWithIndexEEE6_M_ptrEv(ptr noundef nonnull align 8 dereferenceable(64) %4) #3
  ret ptr %5
}

; Function Attrs: mustprogress nounwind uwtable
define linkonce_odr ptr @_ZNSt8_Rb_treeINSt7__cxx1112basic_stringIcSt11char_traitsIcESaIcEEESt4pairIKS5_N10open_spiel10algorithms15LegalsWithIndexEESt10_Select1stISB_ESt4lessIS5_ESaISB_EE3endEv(ptr noundef nonnull align 8 dereferenceable(48) %0) #5 comdat align 2 {
  %2 = alloca %"struct.std::_Rb_tree_iterator", align 8
  %3 = alloca ptr, align 8
  store ptr %0, ptr %3, align 8
  %4 = load ptr, ptr %3, align 8
  %5 = getelementptr inbounds nuw %"class.std::_Rb_tree.26", ptr %4, i32 0, i32 0
  %6 = getelementptr inbounds i8, ptr %5, i64 8
  %7 = getelementptr inbounds nuw %"struct.std::_Rb_tree_header", ptr %6, i32 0, i32 0
  call void @_ZNSt17_Rb_tree_iteratorISt4pairIKNSt7__cxx1112basic_stringIcSt11char_traitsIcESaIcEEEN10open_spiel10algorithms15LegalsWithIndexEEEC2EPSt18_Rb_tree_node_base(ptr noundef nonnull align 8 dereferenceable(8) %2, ptr noundef %7) #3
  %8 = getelementptr inbounds nuw %"struct.std::_Rb_tree_iterator", ptr %2, i32 0, i32 0
  %9 = load ptr, ptr %8, align 8
  ret ptr %9
}

; Function Attrs: mustprogress nounwind uwtable
define linkonce_odr ptr @_ZNSt8_Rb_treeINSt7__cxx1112basic_stringIcSt11char_traitsIcESaIcEEESt4pairIKS5_N10open_spiel10algorithms15LegalsWithIndexEESt10_Select1stISB_ESt4lessIS5_ESaISB_EE5beginEv(ptr noundef nonnull align 8 dereferenceable(48) %0) #5 comdat align 2 {
  %2 = alloca %"struct.std::_Rb_tree_iterator", align 8
  %3 = alloca ptr, align 8
  store ptr %0, ptr %3, align 8
  %4 = load ptr, ptr %3, align 8
  %5 = getelementptr inbounds nuw %"class.std::_Rb_tree.26", ptr %4, i32 0, i32 0
  %6 = getelementptr inbounds i8, ptr %5, i64 8
  %7 = getelementptr inbounds nuw %"struct.std::_Rb_tree_header", ptr %6, i32 0, i32 0
  %8 = getelementptr inbounds nuw %"struct.std::_Rb_tree_node_base", ptr %7, i32 0, i32 2
  %9 = load ptr, ptr %8, align 8
  call void @_ZNSt17_Rb_tree_iteratorISt4pairIKNSt7__cxx1112basic_stringIcSt11char_traitsIcESaIcEEEN10open_spiel10algorithms15LegalsWithIndexEEEC2EPSt18_Rb_tree_node_base(ptr noundef nonnull align 8 dereferenceable(8) %2, ptr noundef %9) #3
  %10 = getelementptr inbounds nuw %"struct.std::_Rb_tree_iterator", ptr %2, i32 0, i32 0
  %11 = load ptr, ptr %10, align 8
  ret ptr %11
}

; Function Attrs: mustprogress nounwind uwtable
define linkonce_odr noundef nonnull align 8 dereferenceable(8) ptr @_ZNSt17_Rb_tree_iteratorISt4pairIKNSt7__cxx1112basic_stringIcSt11char_traitsIcESaIcEEEN10open_spiel10algorithms15LegalsWithIndexEEEppEv(ptr noundef nonnull align 8 dereferenceable(8) %0) #5 comdat align 2 {
  %2 = alloca ptr, align 8
  store ptr %0, ptr %2, align 8
  %3 = load ptr, ptr %2, align 8
  %4 = getelementptr inbounds nuw %"struct.std::_Rb_tree_iterator", ptr %3, i32 0, i32 0
  %5 = load ptr, ptr %4, align 8
  %6 = call noundef ptr @_ZSt18_Rb_tree_incrementPSt18_Rb_tree_node_base(ptr noundef %5) #16
  %7 = getelementptr inbounds nuw %"struct.std::_Rb_tree_iterator", ptr %3, i32 0, i32 0
  store ptr %6, ptr %7, align 8
  ret ptr %3
}

; Function Attrs: mustprogress nounwind uwtable
define linkonce_odr noundef nonnull align 8 dereferenceable(64) ptr @_ZNKSt17_Rb_tree_iteratorISt4pairIKNSt7__cxx1112basic_stringIcSt11char_traitsIcESaIcEEEN10open_spiel10algorithms15LegalsWithIndexEEEdeEv(ptr noundef nonnull align 8 dereferenceable(8) %0) #5 comdat align 2 {
  %2 = alloca ptr, align 8
  store ptr %0, ptr %2, align 8
  %3 = load ptr, ptr %2, align 8
  %4 = getelementptr inbounds nuw %"struct.std::_Rb_tree_iterator", ptr %3, i32 0, i32 0
  %5 = load ptr, ptr %4, align 8
  %6 = call noundef ptr @_ZNSt13_Rb_tree_nodeISt4pairIKNSt7__cxx1112basic_stringIcSt11char_traitsIcESaIcEEEN10open_spiel10algorithms15LegalsWithIndexEEE9_M_valptrEv(ptr noundef nonnull align 8 dereferenceable(96) %5)
  ret ptr %6
}

; Function Attrs: mustprogress nounwind uwtable
define linkonce_odr noundef zeroext i1 @_ZStneRKSt17_Rb_tree_iteratorISt4pairIKNSt7__cxx1112basic_stringIcSt11char_traitsIcESaIcEEEN10open_spiel10algorithms15LegalsWithIndexEEESE_(ptr noundef nonnull align 8 dereferenceable(8) %0, ptr noundef nonnull align 8 dereferenceable(8) %1) #5 comdat {
  %3 = alloca ptr, align 8
  %4 = alloca ptr, align 8
  store ptr %0, ptr %3, align 8
  store ptr %1, ptr %4, align 8
  %5 = load ptr, ptr %3, align 8
  %6 = getelementptr inbounds nuw %"struct.std::_Rb_tree_iterator", ptr %5, i32 0, i32 0
  %7 = load ptr, ptr %6, align 8
  %8 = load ptr, ptr %4, align 8
  %9 = getelementptr inbounds nuw %"struct.std::_Rb_tree_iterator", ptr %8, i32 0, i32 0
  %10 = load ptr, ptr %9, align 8
  %11 = icmp ne ptr %7, %10
  ret i1 %11
}

; Function Attrs: mustprogress nounwind uwtable
define linkonce_odr ptr @_ZNSt3mapINSt7__cxx1112basic_stringIcSt11char_traitsIcESaIcEEEN10open_spiel10algorithms15LegalsWithIndexESt4lessIS5_ESaISt4pairIKS5_S8_EEE3endEv(ptr noundef nonnull align 8 dereferenceable(48) %0) #5 comdat align 2 {
  %2 = alloca %"struct.std::_Rb_tree_iterator", align 8
  %3 = alloca ptr, align 8
  store ptr %0, ptr %3, align 8
  %4 = load ptr, ptr %3, align 8
  %5 = getelementptr inbounds nuw %"class.std::map.25", ptr %4, i32 0, i32 0
  %6 = call ptr @_ZNSt8_Rb_treeINSt7__cxx1112basic_stringIcSt11char_traitsIcESaIcEEESt4pairIKS5_N10open_spiel10algorithms15LegalsWithIndexEESt10_Select1stISB_ESt4lessIS5_ESaISB_EE3endEv(ptr noundef nonnull align 8 dereferenceable(48) %5) #3
  %7 = getelementptr inbounds nuw %"struct.std::_Rb_tree_iterator", ptr %2, i32 0, i32 0
  store ptr %6, ptr %7, align 8
  %8 = getelementptr inbounds nuw %"struct.std::_Rb_tree_iterator", ptr %2, i32 0, i32 0
  %9 = load ptr, ptr %8, align 8
  ret ptr %9
}

; Function Attrs: mustprogress nounwind uwtable
define linkonce_odr ptr @_ZNSt3mapINSt7__cxx1112basic_stringIcSt11char_traitsIcESaIcEEEN10open_spiel10algorithms15LegalsWithIndexESt4lessIS5_ESaISt4pairIKS5_S8_EEE5beginEv(ptr noundef nonnull align 8 dereferenceable(48) %0) #5 comdat align 2 {
  %2 = alloca %"struct.std::_Rb_tree_iterator", align 8
  %3 = alloca ptr, align 8
  store ptr %0, ptr %3, align 8
  %4 = load ptr, ptr %3, align 8
  %5 = getelementptr inbounds nuw %"class.std::map.25", ptr %4, i32 0, i32 0
  %6 = call ptr @_ZNSt8_Rb_treeINSt7__cxx1112basic_stringIcSt11char_traitsIcESaIcEEESt4pairIKS5_N10open_spiel10algorithms15LegalsWithIndexEESt10_Select1stISB_ESt4lessIS5_ESaISB_EE5beginEv(ptr noundef nonnull align 8 dereferenceable(48) %5) #3
  %7 = getelementptr inbounds nuw %"struct.std::_Rb_tree_iterator", ptr %2, i32 0, i32 0
  store ptr %6, ptr %7, align 8
  %8 = getelementptr inbounds nuw %"struct.std::_Rb_tree_iterator", ptr %2, i32 0, i32 0
  %9 = load ptr, ptr %8, align 8
  ret ptr %9
}

; Function Attrs: mustprogress nounwind uwtable
define void @_ZN10open_spiel10algorithms26DeterministicTabularPolicy18ResetDefaultPolicyEv(ptr noundef nonnull align 8 dereferenceable(60) %0) #5 align 2 {
  %2 = alloca ptr, align 8
  %3 = alloca ptr, align 8
  %4 = alloca %"struct.std::_Rb_tree_iterator", align 8
  %5 = alloca %"struct.std::_Rb_tree_iterator", align 8
  %6 = alloca ptr, align 8
  store ptr %0, ptr %2, align 8
  %7 = load ptr, ptr %2, align 8
  %8 = getelementptr inbounds nuw %"class.open_spiel::algorithms::DeterministicTabularPolicy", ptr %7, i32 0, i32 1
  store ptr %8, ptr %3, align 8
  %9 = load ptr, ptr %3, align 8
  %10 = call ptr @_ZNSt3mapINSt7__cxx1112basic_stringIcSt11char_traitsIcESaIcEEEN10open_spiel10algorithms15LegalsWithIndexESt4lessIS5_ESaISt4pairIKS5_S8_EEE5beginEv(ptr noundef nonnull align 8 dereferenceable(48) %9) #3
  %11 = getelementptr inbounds nuw %"struct.std::_Rb_tree_iterator", ptr %4, i32 0, i32 0
  store ptr %10, ptr %11, align 8
  %12 = load ptr, ptr %3, align 8
  %13 = call ptr @_ZNSt3mapINSt7__cxx1112basic_stringIcSt11char_traitsIcESaIcEEEN10open_spiel10algorithms15LegalsWithIndexESt4lessIS5_ESaISt4pairIKS5_S8_EEE3endEv(ptr noundef nonnull align 8 dereferenceable(48) %12) #3
  %14 = getelementptr inbounds nuw %"struct.std::_Rb_tree_iterator", ptr %5, i32 0, i32 0
  store ptr %13, ptr %14, align 8
  br label %15

15:                                               ; preds = %22, %1
  %16 = call noundef zeroext i1 @_ZStneRKSt17_Rb_tree_iteratorISt4pairIKNSt7__cxx1112basic_stringIcSt11char_traitsIcESaIcEEEN10open_spiel10algorithms15LegalsWithIndexEEESE_(ptr noundef nonnull align 8 dereferenceable(8) %4, ptr noundef nonnull align 8 dereferenceable(8) %5) #3
  br i1 %16, label %17, label %24

17:                                               ; preds = %15
  %18 = call noundef nonnull align 8 dereferenceable(64) ptr @_ZNKSt17_Rb_tree_iteratorISt4pairIKNSt7__cxx1112basic_stringIcSt11char_traitsIcESaIcEEEN10open_spiel10algorithms15LegalsWithIndexEEEdeEv(ptr noundef nonnull align 8 dereferenceable(8) %4) #3
  store ptr %18, ptr %6, align 8
  %19 = load ptr, ptr %6, align 8
  %20 = getelementptr inbounds nuw %"struct.std::pair.33", ptr %19, i32 0, i32 1
  %21 = getelementptr inbounds nuw %"struct.open_spiel::algorithms::LegalsWithIndex", ptr %20, i32 0, i32 1
  store i32 0, ptr %21, align 8
  br label %22

22:                                               ; preds = %17
  %23 = call noundef nonnull align 8 dereferenceable(8) ptr @_ZNSt17_Rb_tree_iteratorISt4pairIKNSt7__cxx1112basic_stringIcSt11char_traitsIcESaIcEEEN10open_spiel10algorithms15LegalsWithIndexEEEppEv(ptr noundef nonnull align 8 dereferenceable(8) %4) #3
  br label %15

24:                                               ; preds = %15
  ret void
}