; Function Attrs: mustprogress nofree nounwind memory(readwrite, inaccessiblemem: read) uwtable
define void @_ZN10open_spiel10algorithms26DeterministicTabularPolicy18ResetDefaultPolicyEv(ptr noundef nonnull readonly align 8 dereferenceable(60) %0) local_unnamed_addr #7 align 2 {
  %2 = getelementptr inbounds i8, ptr %0, i64 32
  %3 = load ptr, ptr %2, align 8
  %4 = getelementptr inbounds i8, ptr %0, i64 16
  %.not7 = icmp eq ptr %3, %4
  br i1 %.not7, label %._crit_edge, label %.lr.ph

.lr.ph:                                           ; preds = %1, %.lr.ph
  %.sroa.04.08 = phi ptr [ %6, %.lr.ph ], [ %3, %1 ]
  %5 = getelementptr inbounds i8, ptr %.sroa.04.08, i64 88
  store i32 0, ptr %5, align 8
  %6 = tail call noundef ptr @_ZSt18_Rb_tree_incrementPSt18_Rb_tree_node_base(ptr noundef %.sroa.04.08) #26
  %.not = icmp eq ptr %6, %4
  br i1 %.not, label %._crit_edge, label %.lr.ph

._crit_edge:                                      ; preds = %.lr.ph, %1
  ret void
}